target datalayout = "e-m:e-p270:32:32-p271:32:32-p272:64:64-i64:64-i128:128-f80:128-n8:16:32:64-S128"
target triple = "x86_64-unknown-linux-gnu"

%"class.QuantLib::LfmCovarianceParameterization::Var_Helper" = type { i64, i64, ptr }

; Function Attrs: mustprogress nounwind uwtable
define void @_ZN8QuantLib29LfmCovarianceParameterization10Var_HelperC2EPKS0_mm(ptr noundef nonnull align 8 dereferenceable(24) %this, ptr noundef %param, i64 noundef %i, i64 noundef %j) unnamed_addr #0 align 2 {
entry:
  %this.addr = alloca ptr, align 8
  %param.addr = alloca ptr, align 8
  %i.addr = alloca i64, align 8
  %j.addr = alloca i64, align 8
  store ptr %this, ptr %this.addr, align 8, !tbaa !3
  store ptr %param, ptr %param.addr, align 8, !tbaa !3
  store i64 %i, ptr %i.addr, align 8, !tbaa !7
  store i64 %j, ptr %j.addr, align 8, !tbaa !7
  %this1 = load ptr, ptr %this.addr, align 8
  %i_ = getelementptr inbounds nuw %"class.QuantLib::LfmCovarianceParameterization::Var_Helper", ptr %this1, i32 0, i32 0
  %0 = load i64, ptr %i.addr, align 8, !tbaa !7
  store i64 %0, ptr %i_, align 8, !tbaa !9
  %j_ = getelementptr inbounds nuw %"class.QuantLib::LfmCovarianceParameterization::Var_Helper", ptr %this1, i32 0, i32 1
  %1 = load i64, ptr %j.addr, align 8, !tbaa !7
  store i64 %1, ptr %j_, align 8, !tbaa !11
  %param_ = getelementptr inbounds nuw %"class.QuantLib::LfmCovarianceParameterization::Var_Helper", ptr %this1, i32 0, i32 2
  %2 = load ptr, ptr %param.addr, align 8, !tbaa !3
  store ptr %2, ptr %param_, align 8, !tbaa !12
  ret void
}