; Function Attrs: mustprogress nofree norecurse nosync nounwind willreturn memory(argmem: write) uwtable
define void @_ZN8QuantLib29LfmCovarianceParameterization10Var_HelperC2EPKS0_mm(ptr nocapture noundef nonnull writeonly align 8 dereferenceable(24) %this, ptr noundef %param, i64 noundef %i, i64 noundef %j) unnamed_addr #0 align 2 {
entry:
  store i64 %i, ptr %this, align 8, !tbaa !3
  %j_ = getelementptr inbounds nuw i8, ptr %this, i64 8
  store i64 %j, ptr %j_, align 8, !tbaa !9
  %param_ = getelementptr inbounds nuw i8, ptr %this, i64 16
  store ptr %param, ptr %param_, align 8, !tbaa !10
  ret void
}